; Function Attrs: nounwind uwtable
define hidden range(i64 1, 0) i64 @je_batcher_pop_begin(ptr noundef %0, ptr noundef %1) local_unnamed_addr #0 {
  %3 = load atomic i64, ptr %1 monotonic, align 8
  %4 = icmp eq i64 %3, 0
  br i1 %4, label %27, label %5

5:                                                ; preds = %2
  %6 = getelementptr inbounds nuw i8, ptr %1, i64 96
  %7 = tail call i32 @pthread_mutex_trylock(ptr noundef nonnull %6) #4
  %.not.i = icmp eq i32 %7, 0
  br i1 %.not.i, label %malloc_mutex_trylock_final.exit.i, label %9

malloc_mutex_trylock_final.exit.i:                ; preds = %5
  %8 = getelementptr inbounds nuw i8, ptr %1, i64 88
  store atomic i8 1, ptr %8 monotonic, align 1
  br label %11

9:                                                ; preds = %5
  %10 = getelementptr inbounds nuw i8, ptr %1, i64 24
  tail call void @je_malloc_mutex_lock_slow(ptr noundef nonnull %10) #4
  br label %11

11:                                               ; preds = %9, %malloc_mutex_trylock_final.exit.i
  %12 = getelementptr inbounds nuw i8, ptr %1, i64 80
  %13 = load i64, ptr %12, align 8, !tbaa !12
  %14 = add i64 %13, 1
  store i64 %14, ptr %12, align 8, !tbaa !12
  %15 = getelementptr inbounds nuw i8, ptr %1, i64 72
  %16 = load ptr, ptr %15, align 8, !tbaa !18
  %.not.i.i = icmp eq ptr %16, %0
  br i1 %.not.i.i, label %malloc_mutex_lock.exit, label %17

17:                                               ; preds = %11
  store ptr %0, ptr %15, align 8, !tbaa !18
  %18 = getelementptr inbounds nuw i8, ptr %1, i64 64
  %19 = load i64, ptr %18, align 8, !tbaa !19
  %20 = add i64 %19, 1
  store i64 %20, ptr %18, align 8, !tbaa !19
  br label %malloc_mutex_lock.exit

malloc_mutex_lock.exit:                           ; preds = %11, %17
  %21 = load atomic i64, ptr %1 monotonic, align 8
  %22 = icmp eq i64 %21, 0
  br i1 %22, label %23, label %26

23:                                               ; preds = %malloc_mutex_lock.exit
  %24 = getelementptr inbounds nuw i8, ptr %1, i64 88
  store atomic i8 0, ptr %24 monotonic, align 1
  %25 = tail call i32 @pthread_mutex_unlock(ptr noundef nonnull %6) #4
  br label %27

26:                                               ; preds = %malloc_mutex_lock.exit
  store atomic i64 0, ptr %1 monotonic, align 8
  br label %27

27:                                               ; preds = %23, %26, %2
  %.0 = phi i64 [ -1, %2 ], [ -1, %23 ], [ %21, %26 ]
  ret i64 %.0
}